; Function Attrs: mustprogress uwtable
define noundef nonnull ptr @_ZN4toku8treenode32find_node_with_overlapping_childERKNS_8keyrangeEPKNS1_10comparisonE(ptr noundef nonnull align 8 dereferenceable(202) %0, ptr noundef nonnull align 8 dereferenceable(81) %1, ptr noundef readonly %2) local_unnamed_addr #5 align 2 {
  %4 = alloca i32, align 4
  call void @llvm.lifetime.start.p0(i64 4, ptr nonnull %4) #17
  %.not = icmp eq ptr %2, null
  br i1 %.not, label %7, label %5

5:                                                ; preds = %3
  %6 = load i32, ptr %2, align 4, !tbaa !50
  br label %12

7:                                                ; preds = %3
  %8 = getelementptr inbounds nuw i8, ptr %0, i64 192
  %9 = load ptr, ptr %8, align 8, !tbaa !23
  %10 = getelementptr inbounds nuw i8, ptr %0, i64 48
  %11 = tail call noundef i32 @_ZNK4toku8keyrange7compareERKNS_10comparatorERKS0_(ptr noundef nonnull align 8 dereferenceable(81) %1, ptr noundef nonnull align 8 dereferenceable(17) %9, ptr noundef nonnull align 8 dereferenceable(81) %10)
  br label %12

12:                                               ; preds = %7, %5
  %13 = phi i32 [ %6, %5 ], [ %11, %7 ]
  %14 = icmp eq i32 %13, 1
  br i1 %14, label %15, label %37

15:                                               ; preds = %12
  %16 = getelementptr inbounds nuw i8, ptr %0, i64 160
  %17 = load ptr, ptr %16, align 8, !tbaa !26
  %.not.i.i = icmp eq ptr %17, null
  br i1 %.not.i.i, label %_ZN4toku8treenode23lock_and_rebalance_leftEv.exit.thread, label %18

18:                                               ; preds = %15
  %19 = tail call i32 @pthread_mutex_lock(ptr noundef nonnull align 8 dereferenceable(202) %17) #17
  %20 = load ptr, ptr %16, align 8, !tbaa !26
  %21 = getelementptr inbounds nuw i8, ptr %20, i64 168
  %22 = load i32, ptr %21, align 8, !tbaa !28
  %23 = getelementptr inbounds nuw i8, ptr %20, i64 184
  %24 = load i32, ptr %23, align 8, !tbaa !29
  %25 = tail call i32 @llvm.umax.i32(i32 %22, i32 %24)
  %26 = add i32 %25, 1
  %27 = getelementptr inbounds nuw i8, ptr %0, i64 168
  store i32 %26, ptr %27, align 8, !tbaa !27
  %28 = tail call noundef ptr @_ZN4toku8treenode15maybe_rebalanceEv(ptr noundef nonnull align 8 dereferenceable(202) %20)
  store ptr %28, ptr %16, align 8, !tbaa !26
  %.not.i7.i = icmp eq ptr %28, null
  br i1 %.not.i7.i, label %_ZN4toku8treenode9child_ptr3setEPS0_.exit.i, label %29

29:                                               ; preds = %18
  %30 = getelementptr inbounds nuw i8, ptr %28, i64 168
  %31 = load i32, ptr %30, align 8, !tbaa !28
  %32 = getelementptr inbounds nuw i8, ptr %28, i64 184
  %33 = load i32, ptr %32, align 8, !tbaa !29
  %34 = tail call i32 @llvm.umax.i32(i32 %31, i32 %33)
  %35 = add i32 %34, 1
  br label %_ZN4toku8treenode9child_ptr3setEPS0_.exit.i

_ZN4toku8treenode9child_ptr3setEPS0_.exit.i:      ; preds = %29, %18
  %36 = phi i32 [ %35, %29 ], [ 0, %18 ]
  store i32 %36, ptr %27, align 8, !tbaa !27
  br label %_ZN4toku8treenode23lock_and_rebalance_leftEv.exit

37:                                               ; preds = %12
  %38 = getelementptr inbounds nuw i8, ptr %0, i64 176
  %39 = load ptr, ptr %38, align 8, !tbaa !26
  %.not.i.i14 = icmp eq ptr %39, null
  br i1 %.not.i.i14, label %_ZN4toku8treenode23lock_and_rebalance_leftEv.exit.thread, label %40

40:                                               ; preds = %37
  %41 = tail call i32 @pthread_mutex_lock(ptr noundef nonnull align 8 dereferenceable(202) %39) #17
  %42 = load ptr, ptr %38, align 8, !tbaa !26
  %43 = getelementptr inbounds nuw i8, ptr %42, i64 168
  %44 = load i32, ptr %43, align 8, !tbaa !28
  %45 = getelementptr inbounds nuw i8, ptr %42, i64 184
  %46 = load i32, ptr %45, align 8, !tbaa !29
  %47 = tail call i32 @llvm.umax.i32(i32 %44, i32 %46)
  %48 = add i32 %47, 1
  %49 = getelementptr inbounds nuw i8, ptr %0, i64 184
  store i32 %48, ptr %49, align 8, !tbaa !27
  %50 = tail call noundef ptr @_ZN4toku8treenode15maybe_rebalanceEv(ptr noundef nonnull align 8 dereferenceable(202) %42)
  store ptr %50, ptr %38, align 8, !tbaa !26
  %.not.i7.i15 = icmp eq ptr %50, null
  br i1 %.not.i7.i15, label %_ZN4toku8treenode9child_ptr3setEPS0_.exit.i16, label %51

51:                                               ; preds = %40
  %52 = getelementptr inbounds nuw i8, ptr %50, i64 168
  %53 = load i32, ptr %52, align 8, !tbaa !28
  %54 = getelementptr inbounds nuw i8, ptr %50, i64 184
  %55 = load i32, ptr %54, align 8, !tbaa !29
  %56 = tail call i32 @llvm.umax.i32(i32 %53, i32 %55)
  %57 = add i32 %56, 1
  br label %_ZN4toku8treenode9child_ptr3setEPS0_.exit.i16

_ZN4toku8treenode9child_ptr3setEPS0_.exit.i16:    ; preds = %51, %40
  %58 = phi i32 [ %57, %51 ], [ 0, %40 ]
  store i32 %58, ptr %49, align 8, !tbaa !27
  br label %_ZN4toku8treenode23lock_and_rebalance_leftEv.exit

_ZN4toku8treenode23lock_and_rebalance_leftEv.exit: ; preds = %_ZN4toku8treenode9child_ptr3setEPS0_.exit.i16, %_ZN4toku8treenode9child_ptr3setEPS0_.exit.i
  %.0 = phi ptr [ %28, %_ZN4toku8treenode9child_ptr3setEPS0_.exit.i ], [ %50, %_ZN4toku8treenode9child_ptr3setEPS0_.exit.i16 ]
  %59 = icmp eq ptr %.0, null
  br i1 %59, label %_ZN4toku8treenode23lock_and_rebalance_leftEv.exit.thread, label %60

60:                                               ; preds = %_ZN4toku8treenode23lock_and_rebalance_leftEv.exit
  %61 = getelementptr inbounds nuw i8, ptr %0, i64 192
  %62 = load ptr, ptr %61, align 8, !tbaa !23
  %63 = getelementptr inbounds nuw i8, ptr %.0, i64 48
  %64 = tail call noundef i32 @_ZNK4toku8keyrange7compareERKNS_10comparatorERKS0_(ptr noundef nonnull align 8 dereferenceable(81) %1, ptr noundef nonnull align 8 dereferenceable(17) %62, ptr noundef nonnull align 8 dereferenceable(81) %63)
  store i32 %64, ptr %4, align 4, !tbaa !50
  switch i32 %64, label %67 [
    i32 3, label %65
    i32 0, label %65
  ]

65:                                               ; preds = %60, %60
  %66 = tail call i32 @pthread_mutex_unlock(ptr noundef nonnull align 8 dereferenceable(202) %.0) #17
  br label %_ZN4toku8treenode23lock_and_rebalance_leftEv.exit.thread

67:                                               ; preds = %60
  %68 = tail call i32 @pthread_mutex_unlock(ptr noundef nonnull align 8 dereferenceable(202) %0) #17
  %69 = call noundef ptr @_ZN4toku8treenode32find_node_with_overlapping_childERKNS_8keyrangeEPKNS1_10comparisonE(ptr noundef nonnull align 8 dereferenceable(202) %.0, ptr noundef nonnull align 8 dereferenceable(81) %1, ptr noundef nonnull %4)
  br label %_ZN4toku8treenode23lock_and_rebalance_leftEv.exit.thread

_ZN4toku8treenode23lock_and_rebalance_leftEv.exit.thread: ; preds = %37, %15, %_ZN4toku8treenode23lock_and_rebalance_leftEv.exit, %67, %65
  %.012 = phi ptr [ %0, %65 ], [ %69, %67 ], [ %0, %_ZN4toku8treenode23lock_and_rebalance_leftEv.exit ], [ %0, %15 ], [ %0, %37 ]
  call void @llvm.lifetime.end.p0(i64 4, ptr nonnull %4) #17
  ret ptr %.012
}